target datalayout = "e-m:e-p270:32:32-p271:32:32-p272:64:64-i64:64-i128:128-f80:128-n8:16:32:64-S128"
target triple = "x86_64-pc-linux-gnu"

%struct.s_xdemitconf = type { i64, i64, i64, ptr, ptr, ptr }
%struct.s_xdchange = type { ptr, i64, i64, i64, i64, i32 }

; Function Attrs: nounwind uwtable
define dso_local ptr @xdl_get_hunk(ptr noundef %0, ptr noundef %1) #0 {
  %3 = alloca ptr, align 8
  %4 = alloca ptr, align 8
  %5 = alloca ptr, align 8
  %6 = alloca ptr, align 8
  %7 = alloca ptr, align 8
  %8 = alloca ptr, align 8
  %9 = alloca i64, align 8
  %10 = alloca i64, align 8
  %11 = alloca i64, align 8
  %12 = alloca i32, align 4
  %13 = alloca i64, align 8
  store ptr %0, ptr %4, align 8, !tbaa !4
  store ptr %1, ptr %5, align 8, !tbaa !9
  call void @llvm.lifetime.start.p0(i64 8, ptr %6) #6
  call void @llvm.lifetime.start.p0(i64 8, ptr %7) #6
  call void @llvm.lifetime.start.p0(i64 8, ptr %8) #6
  call void @llvm.lifetime.start.p0(i64 8, ptr %9) #6
  %14 = load ptr, ptr %5, align 8, !tbaa !9
  %15 = getelementptr inbounds nuw %struct.s_xdemitconf, ptr %14, i32 0, i32 0
  %16 = load i64, ptr %15, align 8, !tbaa !11
  %17 = mul nsw i64 2, %16
  %18 = load ptr, ptr %5, align 8, !tbaa !9
  %19 = getelementptr inbounds nuw %struct.s_xdemitconf, ptr %18, i32 0, i32 1
  %20 = load i64, ptr %19, align 8, !tbaa !14
  %21 = add nsw i64 %17, %20
  store i64 %21, ptr %9, align 8, !tbaa !15
  call void @llvm.lifetime.start.p0(i64 8, ptr %10) #6
  %22 = load ptr, ptr %5, align 8, !tbaa !9
  %23 = getelementptr inbounds nuw %struct.s_xdemitconf, ptr %22, i32 0, i32 0
  %24 = load i64, ptr %23, align 8, !tbaa !11
  store i64 %24, ptr %10, align 8, !tbaa !15
  call void @llvm.lifetime.start.p0(i64 8, ptr %11) #6
  store i64 0, ptr %11, align 8, !tbaa !15
  %25 = load ptr, ptr %4, align 8, !tbaa !4
  %26 = load ptr, ptr %25, align 8, !tbaa !16
  store ptr %26, ptr %7, align 8, !tbaa !16
  br label %27

27:                                               ; preds = %61, %2
  %28 = load ptr, ptr %7, align 8, !tbaa !16
  %29 = icmp ne ptr %28, null
  br i1 %29, label %30, label %35

30:                                               ; preds = %27
  %31 = load ptr, ptr %7, align 8, !tbaa !16
  %32 = getelementptr inbounds nuw %struct.s_xdchange, ptr %31, i32 0, i32 5
  %33 = load i32, ptr %32, align 8, !tbaa !18
  %34 = icmp ne i32 %33, 0
  br label %35

35:                                               ; preds = %30, %27
  %36 = phi i1 [ false, %27 ], [ %34, %30 ]
  br i1 %36, label %37, label %65

37:                                               ; preds = %35
  %38 = load ptr, ptr %7, align 8, !tbaa !16
  %39 = getelementptr inbounds nuw %struct.s_xdchange, ptr %38, i32 0, i32 0
  %40 = load ptr, ptr %39, align 8, !tbaa !21
  store ptr %40, ptr %6, align 8, !tbaa !16
  %41 = load ptr, ptr %6, align 8, !tbaa !16
  %42 = icmp eq ptr %41, null
  br i1 %42, label %57, label %43

43:                                               ; preds = %37
  %44 = load ptr, ptr %6, align 8, !tbaa !16
  %45 = getelementptr inbounds nuw %struct.s_xdchange, ptr %44, i32 0, i32 1
  %46 = load i64, ptr %45, align 8, !tbaa !22
  %47 = load ptr, ptr %7, align 8, !tbaa !16
  %48 = getelementptr inbounds nuw %struct.s_xdchange, ptr %47, i32 0, i32 1
  %49 = load i64, ptr %48, align 8, !tbaa !22
  %50 = load ptr, ptr %7, align 8, !tbaa !16
  %51 = getelementptr inbounds nuw %struct.s_xdchange, ptr %50, i32 0, i32 3
  %52 = load i64, ptr %51, align 8, !tbaa !23
  %53 = add nsw i64 %49, %52
  %54 = sub nsw i64 %46, %53
  %55 = load i64, ptr %10, align 8, !tbaa !15
  %56 = icmp sge i64 %54, %55
  br i1 %56, label %57, label %60

57:                                               ; preds = %43, %37
  %58 = load ptr, ptr %6, align 8, !tbaa !16
  %59 = load ptr, ptr %4, align 8, !tbaa !4
  store ptr %58, ptr %59, align 8, !tbaa !16
  br label %60

60:                                               ; preds = %57, %43
  br label %61

61:                                               ; preds = %60
  %62 = load ptr, ptr %7, align 8, !tbaa !16
  %63 = getelementptr inbounds nuw %struct.s_xdchange, ptr %62, i32 0, i32 0
  %64 = load ptr, ptr %63, align 8, !tbaa !21
  store ptr %64, ptr %7, align 8, !tbaa !16
  br label %27, !llvm.loop !24

65:                                               ; preds = %35
  %66 = load ptr, ptr %4, align 8, !tbaa !4
  %67 = load ptr, ptr %66, align 8, !tbaa !16
  %68 = icmp ne ptr %67, null
  br i1 %68, label %70, label %69

69:                                               ; preds = %65
  store ptr null, ptr %3, align 8
  store i32 1, ptr %12, align 4
  br label %175

70:                                               ; preds = %65
  %71 = load ptr, ptr %4, align 8, !tbaa !4
  %72 = load ptr, ptr %71, align 8, !tbaa !16
  store ptr %72, ptr %8, align 8, !tbaa !16
  %73 = load ptr, ptr %4, align 8, !tbaa !4
  %74 = load ptr, ptr %73, align 8, !tbaa !16
  store ptr %74, ptr %7, align 8, !tbaa !16
  %75 = load ptr, ptr %7, align 8, !tbaa !16
  %76 = getelementptr inbounds nuw %struct.s_xdchange, ptr %75, i32 0, i32 0
  %77 = load ptr, ptr %76, align 8, !tbaa !21
  store ptr %77, ptr %6, align 8, !tbaa !16
  br label %78

78:                                               ; preds = %168, %70
  %79 = load ptr, ptr %6, align 8, !tbaa !16
  %80 = icmp ne ptr %79, null
  br i1 %80, label %81, label %173

81:                                               ; preds = %78
  call void @llvm.lifetime.start.p0(i64 8, ptr %13) #6
  %82 = load ptr, ptr %6, align 8, !tbaa !16
  %83 = getelementptr inbounds nuw %struct.s_xdchange, ptr %82, i32 0, i32 1
  %84 = load i64, ptr %83, align 8, !tbaa !22
  %85 = load ptr, ptr %7, align 8, !tbaa !16
  %86 = getelementptr inbounds nuw %struct.s_xdchange, ptr %85, i32 0, i32 1
  %87 = load i64, ptr %86, align 8, !tbaa !22
  %88 = load ptr, ptr %7, align 8, !tbaa !16
  %89 = getelementptr inbounds nuw %struct.s_xdchange, ptr %88, i32 0, i32 3
  %90 = load i64, ptr %89, align 8, !tbaa !23
  %91 = add nsw i64 %87, %90
  %92 = sub nsw i64 %84, %91
  store i64 %92, ptr %13, align 8, !tbaa !15
  %93 = load i64, ptr %13, align 8, !tbaa !15
  %94 = load i64, ptr %9, align 8, !tbaa !15
  %95 = icmp sgt i64 %93, %94
  br i1 %95, label %96, label %97

96:                                               ; preds = %81
  store i32 5, ptr %12, align 4
  br label %165

97:                                               ; preds = %81
  %98 = load i64, ptr %13, align 8, !tbaa !15
  %99 = load i64, ptr %10, align 8, !tbaa !15
  %100 = icmp slt i64 %98, %99
  br i1 %100, label %101, label %112

101:                                              ; preds = %97
  %102 = load ptr, ptr %6, align 8, !tbaa !16
  %103 = getelementptr inbounds nuw %struct.s_xdchange, ptr %102, i32 0, i32 5
  %104 = load i32, ptr %103, align 8, !tbaa !18
  %105 = icmp ne i32 %104, 0
  br i1 %105, label %106, label %110

106:                                              ; preds = %101
  %107 = load ptr, ptr %8, align 8, !tbaa !16
  %108 = load ptr, ptr %7, align 8, !tbaa !16
  %109 = icmp eq ptr %107, %108
  br i1 %109, label %110, label %112

110:                                              ; preds = %106, %101
  %111 = load ptr, ptr %6, align 8, !tbaa !16
  store ptr %111, ptr %8, align 8, !tbaa !16
  store i64 0, ptr %11, align 8, !tbaa !15
  br label %164

112:                                              ; preds = %106, %97
  %113 = load i64, ptr %13, align 8, !tbaa !15
  %114 = load i64, ptr %10, align 8, !tbaa !15
  %115 = icmp slt i64 %113, %114
  br i1 %115, label %116, label %127

116:                                              ; preds = %112
  %117 = load ptr, ptr %6, align 8, !tbaa !16
  %118 = getelementptr inbounds nuw %struct.s_xdchange, ptr %117, i32 0, i32 5
  %119 = load i32, ptr %118, align 8, !tbaa !18
  %120 = icmp ne i32 %119, 0
  br i1 %120, label %121, label %127

121:                                              ; preds = %116
  %122 = load ptr, ptr %6, align 8, !tbaa !16
  %123 = getelementptr inbounds nuw %struct.s_xdchange, ptr %122, i32 0, i32 4
  %124 = load i64, ptr %123, align 8, !tbaa !26
  %125 = load i64, ptr %11, align 8, !tbaa !15
  %126 = add i64 %125, %124
  store i64 %126, ptr %11, align 8, !tbaa !15
  br label %163

127:                                              ; preds = %116, %112
  %128 = load ptr, ptr %8, align 8, !tbaa !16
  %129 = load ptr, ptr %7, align 8, !tbaa !16
  %130 = icmp ne ptr %128, %129
  br i1 %130, label %131, label %148

131:                                              ; preds = %127
  %132 = load ptr, ptr %6, align 8, !tbaa !16
  %133 = getelementptr inbounds nuw %struct.s_xdchange, ptr %132, i32 0, i32 1
  %134 = load i64, ptr %133, align 8, !tbaa !22
  %135 = load i64, ptr %11, align 8, !tbaa !15
  %136 = add i64 %134, %135
  %137 = load ptr, ptr %8, align 8, !tbaa !16
  %138 = getelementptr inbounds nuw %struct.s_xdchange, ptr %137, i32 0, i32 1
  %139 = load i64, ptr %138, align 8, !tbaa !22
  %140 = load ptr, ptr %8, align 8, !tbaa !16
  %141 = getelementptr inbounds nuw %struct.s_xdchange, ptr %140, i32 0, i32 3
  %142 = load i64, ptr %141, align 8, !tbaa !23
  %143 = add nsw i64 %139, %142
  %144 = sub i64 %136, %143
  %145 = load i64, ptr %9, align 8, !tbaa !15
  %146 = icmp ugt i64 %144, %145
  br i1 %146, label %147, label %148

147:                                              ; preds = %131
  store i32 5, ptr %12, align 4
  br label %165

148:                                              ; preds = %131, %127
  %149 = load ptr, ptr %6, align 8, !tbaa !16
  %150 = getelementptr inbounds nuw %struct.s_xdchange, ptr %149, i32 0, i32 5
  %151 = load i32, ptr %150, align 8, !tbaa !18
  %152 = icmp ne i32 %151, 0
  br i1 %152, label %155, label %153

153:                                              ; preds = %148
  %154 = load ptr, ptr %6, align 8, !tbaa !16
  store ptr %154, ptr %8, align 8, !tbaa !16
  store i64 0, ptr %11, align 8, !tbaa !15
  br label %161

155:                                              ; preds = %148
  %156 = load ptr, ptr %6, align 8, !tbaa !16
  %157 = getelementptr inbounds nuw %struct.s_xdchange, ptr %156, i32 0, i32 4
  %158 = load i64, ptr %157, align 8, !tbaa !26
  %159 = load i64, ptr %11, align 8, !tbaa !15
  %160 = add i64 %159, %158
  store i64 %160, ptr %11, align 8, !tbaa !15
  br label %161

161:                                              ; preds = %155, %153
  br label %162

162:                                              ; preds = %161
  br label %163

163:                                              ; preds = %162, %121
  br label %164

164:                                              ; preds = %163, %110
  store i32 0, ptr %12, align 4
  br label %165

165:                                              ; preds = %164, %147, %96
  call void @llvm.lifetime.end.p0(i64 8, ptr %13) #6
  %166 = load i32, ptr %12, align 4
  switch i32 %166, label %177 [
    i32 0, label %167
    i32 5, label %173
  ]

167:                                              ; preds = %165
  br label %168

168:                                              ; preds = %167
  %169 = load ptr, ptr %6, align 8, !tbaa !16
  store ptr %169, ptr %7, align 8, !tbaa !16
  %170 = load ptr, ptr %6, align 8, !tbaa !16
  %171 = getelementptr inbounds nuw %struct.s_xdchange, ptr %170, i32 0, i32 0
  %172 = load ptr, ptr %171, align 8, !tbaa !21
  store ptr %172, ptr %6, align 8, !tbaa !16
  br label %78, !llvm.loop !27

173:                                              ; preds = %165, %78
  %174 = load ptr, ptr %8, align 8, !tbaa !16
  store ptr %174, ptr %3, align 8
  store i32 1, ptr %12, align 4
  br label %175

175:                                              ; preds = %173, %69
  call void @llvm.lifetime.end.p0(i64 8, ptr %11) #6
  call void @llvm.lifetime.end.p0(i64 8, ptr %10) #6
  call void @llvm.lifetime.end.p0(i64 8, ptr %9) #6
  call void @llvm.lifetime.end.p0(i64 8, ptr %8) #6
  call void @llvm.lifetime.end.p0(i64 8, ptr %7) #6
  call void @llvm.lifetime.end.p0(i64 8, ptr %6) #6
  %176 = load ptr, ptr %3, align 8
  ret ptr %176

177:                                              ; preds = %165
  unreachable
}