; Function Attrs: nofree norecurse nosync nounwind memory(read, argmem: readwrite, inaccessiblemem: none) uwtable
define dso_local ptr @xdl_get_hunk(ptr noundef captures(none) %0, ptr noundef readonly captures(none) %1) local_unnamed_addr #0 {
  %3 = load i64, ptr %1, align 8, !tbaa !4
  %4 = shl nsw i64 %3, 1
  %5 = getelementptr inbounds nuw i8, ptr %1, i64 8
  %6 = load i64, ptr %5, align 8, !tbaa !10
  %7 = add nsw i64 %4, %6
  %.05485 = load ptr, ptr %0, align 8, !tbaa !11
  %.not86 = icmp eq ptr %.05485, null
  br i1 %.not86, label %.thread, label %.lr.ph

.lr.ph:                                           ; preds = %2, %24
  %8 = phi ptr [ %25, %24 ], [ %.05485, %2 ]
  %.05487 = phi ptr [ %.054, %24 ], [ %.05485, %2 ]
  %9 = getelementptr inbounds nuw i8, ptr %.05487, i64 40
  %10 = load i32, ptr %9, align 8, !tbaa !13
  %.not63 = icmp eq i32 %10, 0
  br i1 %.not63, label %.critedge, label %11

11:                                               ; preds = %.lr.ph
  %12 = load ptr, ptr %.05487, align 8, !tbaa !16
  %13 = icmp eq ptr %12, null
  br i1 %13, label %23, label %14

14:                                               ; preds = %11
  %15 = getelementptr inbounds nuw i8, ptr %12, i64 8
  %16 = load i64, ptr %15, align 8, !tbaa !17
  %17 = getelementptr inbounds nuw i8, ptr %.05487, i64 8
  %18 = load i64, ptr %17, align 8, !tbaa !17
  %19 = getelementptr inbounds nuw i8, ptr %.05487, i64 24
  %20 = load i64, ptr %19, align 8, !tbaa !18
  %21 = add i64 %18, %20
  %22 = sub i64 %16, %21
  %.not70 = icmp slt i64 %22, %3
  br i1 %.not70, label %24, label %23

23:                                               ; preds = %14, %11
  store ptr %12, ptr %0, align 8, !tbaa !11
  %.054.pre = load ptr, ptr %.05487, align 8, !tbaa !11
  br label %24

24:                                               ; preds = %14, %23
  %25 = phi ptr [ %8, %14 ], [ %12, %23 ]
  %.054 = phi ptr [ %12, %14 ], [ %.054.pre, %23 ]
  %.not = icmp eq ptr %.054, null
  br i1 %.not, label %.critedge, label %.lr.ph, !llvm.loop !19

.critedge:                                        ; preds = %.lr.ph, %24
  %26 = phi ptr [ %25, %24 ], [ %8, %.lr.ph ]
  %.not64 = icmp eq ptr %26, null
  br i1 %.not64, label %.thread, label %.preheader

.preheader:                                       ; preds = %.critedge
  %.05389 = load ptr, ptr %26, align 8, !tbaa !16
  %.not6590 = icmp eq ptr %.05389, null
  br i1 %.not6590, label %.thread, label %.lr.ph95.preheader

.lr.ph95.preheader:                               ; preds = %.preheader
  %.phi.trans.insert = getelementptr inbounds nuw i8, ptr %26, i64 8
  %.pre = load i64, ptr %.phi.trans.insert, align 8, !tbaa !17
  br label %.lr.ph95

.lr.ph95:                                         ; preds = %.lr.ph95.preheader, %55
  %27 = phi i64 [ %29, %55 ], [ %.pre, %.lr.ph95.preheader ]
  %.05394 = phi ptr [ %.053, %55 ], [ %.05389, %.lr.ph95.preheader ]
  %.05293 = phi i64 [ %.1, %55 ], [ 0, %.lr.ph95.preheader ]
  %.15592 = phi ptr [ %.05394, %55 ], [ %26, %.lr.ph95.preheader ]
  %.05691 = phi ptr [ %.258, %55 ], [ %26, %.lr.ph95.preheader ]
  %28 = getelementptr inbounds nuw i8, ptr %.05394, i64 8
  %29 = load i64, ptr %28, align 8, !tbaa !17
  %30 = getelementptr inbounds nuw i8, ptr %.15592, i64 24
  %31 = load i64, ptr %30, align 8, !tbaa !18
  %32 = add i64 %27, %31
  %33 = sub i64 %29, %32
  %34 = icmp sgt i64 %33, %7
  br i1 %34, label %.thread, label %35

35:                                               ; preds = %.lr.ph95
  %36 = icmp slt i64 %33, %3
  br i1 %36, label %37, label %.critedge72

37:                                               ; preds = %35
  %38 = getelementptr inbounds nuw i8, ptr %.05394, i64 40
  %39 = load i32, ptr %38, align 8, !tbaa !13
  %.not66 = icmp eq i32 %39, 0
  %40 = icmp eq ptr %.05691, %.15592
  %or.cond = select i1 %.not66, i1 true, i1 %40
  br i1 %or.cond, label %55, label %.sink.split

.critedge72:                                      ; preds = %35
  %.not68 = icmp eq ptr %.05691, %.15592
  br i1 %.not68, label %49, label %41

41:                                               ; preds = %.critedge72
  %42 = getelementptr inbounds nuw i8, ptr %.05691, i64 8
  %43 = load i64, ptr %42, align 8, !tbaa !17
  %44 = getelementptr inbounds nuw i8, ptr %.05691, i64 24
  %45 = load i64, ptr %44, align 8, !tbaa !18
  %.neg84 = add i64 %29, %.05293
  %46 = add i64 %43, %45
  %47 = sub i64 %.neg84, %46
  %48 = icmp ugt i64 %47, %7
  br i1 %48, label %.thread, label %49

49:                                               ; preds = %41, %.critedge72
  %50 = getelementptr inbounds nuw i8, ptr %.05394, i64 40
  %51 = load i32, ptr %50, align 8, !tbaa !13
  %.not69 = icmp eq i32 %51, 0
  br i1 %.not69, label %55, label %.sink.split

.sink.split:                                      ; preds = %49, %37
  %52 = getelementptr inbounds nuw i8, ptr %.05394, i64 32
  %53 = load i64, ptr %52, align 8, !tbaa !21
  %54 = add i64 %53, %.05293
  br label %55

55:                                               ; preds = %.sink.split, %37, %49
  %.258 = phi ptr [ %.05394, %37 ], [ %.05394, %49 ], [ %.05691, %.sink.split ]
  %.1 = phi i64 [ 0, %37 ], [ 0, %49 ], [ %54, %.sink.split ]
  %.053 = load ptr, ptr %.05394, align 8, !tbaa !16
  %.not65 = icmp eq ptr %.053, null
  br i1 %.not65, label %.thread, label %.lr.ph95, !llvm.loop !22

.thread:                                          ; preds = %55, %.lr.ph95, %41, %2, %.preheader, %.critedge
  %.0 = phi ptr [ null, %.critedge ], [ %26, %.preheader ], [ null, %2 ], [ %.258, %55 ], [ %.05691, %.lr.ph95 ], [ %.05691, %41 ]
  ret ptr %.0
}